target datalayout = "e-m:e-p270:32:32-p271:32:32-p272:64:64-i64:64-i128:128-f80:128-n8:16:32:64-S128"
target triple = "x86_64-pc-linux-gnu"

%struct.llama_sampler = type { ptr, ptr }
%struct.llama_sampler_chain_params = type { i8 }
%struct.llama_sampler_chain = type <{ %struct.llama_sampler_chain_params, [7 x i8], %"class.std::vector.0", i64, i32, [4 x i8] }>
%"class.std::vector.0" = type { %"struct.std::_Vector_base.1" }
%"struct.std::_Vector_base.1" = type { %"struct.std::_Vector_base<llama_sampler *, std::allocator<llama_sampler *>>::_Vector_impl" }
%"struct.std::_Vector_base<llama_sampler *, std::allocator<llama_sampler *>>::_Vector_impl" = type { %"struct.std::_Vector_base<llama_sampler *, std::allocator<llama_sampler *>>::_Vector_impl_data" }
%"struct.std::_Vector_base<llama_sampler *, std::allocator<llama_sampler *>>::_Vector_impl_data" = type { ptr, ptr, ptr }
%struct.llama_perf_sampler_data = type { double, i32 }

@.str.1 = private unnamed_addr constant [120 x i8] c"generated/home/dtcxzyw/WorkSpace/Projects/compilers/llvm-opt-benchmark/bench/llama.cpp/llama.cpp/src/llama-sampling.cpp\00", align 1
@.str.12 = private unnamed_addr constant [89 x i8] c"%s: invalid sampler passed - requires a sampler created with llama_sampler_chain_init()\0A\00", align 1
@__func__.llama_perf_sampler = private unnamed_addr constant [19 x i8] c"llama_perf_sampler\00", align 1
@.str.13 = private unnamed_addr constant [93 x i8] c"%s:    sampling time = %10.2f ms / %5d runs   (%8.2f ms per token, %8.2f tokens per second)\0A\00", align 1
@__func__.llama_perf_sampler_print = private unnamed_addr constant [25 x i8] c"llama_perf_sampler_print\00", align 1

; Function Attrs: inlinehint mustprogress nounwind uwtable
define linkonce_odr noundef nonnull align 4 dereferenceable(4) ptr @_ZSt3maxIiERKT_S2_S2_(ptr noundef nonnull align 4 dereferenceable(4) %0, ptr noundef nonnull align 4 dereferenceable(4) %1) #9 comdat {
  %3 = alloca ptr, align 8
  %4 = alloca ptr, align 8
  %5 = alloca ptr, align 8
  store ptr %0, ptr %4, align 8, !tbaa !135
  store ptr %1, ptr %5, align 8, !tbaa !135
  %6 = load ptr, ptr %4, align 8, !tbaa !135
  %7 = load i32, ptr %6, align 4, !tbaa !16
  %8 = load ptr, ptr %5, align 8, !tbaa !135
  %9 = load i32, ptr %8, align 4, !tbaa !16
  %10 = icmp slt i32 %7, %9
  br i1 %10, label %11, label %13

11:                                               ; preds = %2
  %12 = load ptr, ptr %5, align 8, !tbaa !135
  store ptr %12, ptr %3, align 8
  br label %15

13:                                               ; preds = %2
  %14 = load ptr, ptr %4, align 8, !tbaa !135
  store ptr %14, ptr %3, align 8
  br label %15

15:                                               ; preds = %13, %11
  %16 = load ptr, ptr %3, align 8
  ret ptr %16
}

; Function Attrs: mustprogress uwtable
define { double, i32 } @llama_perf_sampler(ptr noundef %0) #0 {
  %2 = alloca %struct.llama_perf_sampler_data, align 8
  %3 = alloca ptr, align 8
  %4 = alloca ptr, align 8
  %5 = alloca i32, align 4
  store ptr %0, ptr %3, align 8, !tbaa !12
  call void @llvm.memset.p0.i64(ptr align 8 %2, i8 0, i64 16, i1 false)
  %6 = load ptr, ptr %3, align 8, !tbaa !12
  %7 = icmp eq ptr %6, null
  br i1 %7, label %13, label %8

8:                                                ; preds = %1
  %9 = load ptr, ptr %3, align 8, !tbaa !12
  %10 = getelementptr inbounds nuw %struct.llama_sampler, ptr %9, i32 0, i32 0
  %11 = load ptr, ptr %10, align 8, !tbaa !9
  %12 = icmp ne ptr %11, @_ZL21llama_sampler_chain_i
  br i1 %12, label %13, label %14

13:                                               ; preds = %8, %1
  call void (ptr, i32, ptr, ...) @ggml_abort(ptr noundef @.str.1, i32 noundef 2498, ptr noundef @.str.12, ptr noundef @__func__.llama_perf_sampler) #20
  unreachable

14:                                               ; preds = %8
  call void @llvm.lifetime.start.p0(i64 8, ptr %4) #14
  %15 = load ptr, ptr %3, align 8, !tbaa !12
  %16 = getelementptr inbounds nuw %struct.llama_sampler, ptr %15, i32 0, i32 1
  %17 = load ptr, ptr %16, align 8, !tbaa !11
  store ptr %17, ptr %4, align 8, !tbaa !71
  %18 = load ptr, ptr %4, align 8, !tbaa !71
  %19 = getelementptr inbounds nuw %struct.llama_sampler_chain, ptr %18, i32 0, i32 3
  %20 = load i64, ptr %19, align 8, !tbaa !59
  %21 = sitofp i64 %20 to double
  %22 = fmul double 1.000000e-03, %21
  %23 = getelementptr inbounds nuw %struct.llama_perf_sampler_data, ptr %2, i32 0, i32 0
  store double %22, ptr %23, align 8, !tbaa !244
  call void @llvm.lifetime.start.p0(i64 4, ptr %5) #14
  store i32 0, ptr %5, align 4, !tbaa !16
  %24 = load ptr, ptr %4, align 8, !tbaa !71
  %25 = getelementptr inbounds nuw %struct.llama_sampler_chain, ptr %24, i32 0, i32 4
  %26 = call noundef nonnull align 4 dereferenceable(4) ptr @_ZSt3maxIiERKT_S2_S2_(ptr noundef nonnull align 4 dereferenceable(4) %5, ptr noundef nonnull align 4 dereferenceable(4) %25)
  %27 = load i32, ptr %26, align 4, !tbaa !16
  %28 = getelementptr inbounds nuw %struct.llama_perf_sampler_data, ptr %2, i32 0, i32 1
  store i32 %27, ptr %28, align 8, !tbaa !247
  call void @llvm.lifetime.end.p0(i64 4, ptr %5) #14
  call void @llvm.lifetime.end.p0(i64 8, ptr %4) #14
  %29 = load { double, i32 }, ptr %2, align 8
  ret { double, i32 } %29
}

; Function Attrs: mustprogress uwtable
define void @llama_perf_sampler_print(ptr noundef %0) #0 {
  %2 = alloca ptr, align 8
  %3 = alloca %struct.llama_perf_sampler_data, align 8
  store ptr %0, ptr %2, align 8, !tbaa !12
  call void @llvm.lifetime.start.p0(i64 16, ptr %3) #14
  %4 = load ptr, ptr %2, align 8, !tbaa !12
  %5 = call { double, i32 } @llama_perf_sampler(ptr noundef %4)
  %6 = getelementptr inbounds nuw { double, i32 }, ptr %3, i32 0, i32 0
  %7 = extractvalue { double, i32 } %5, 0
  store double %7, ptr %6, align 8
  %8 = getelementptr inbounds nuw { double, i32 }, ptr %3, i32 0, i32 1
  %9 = extractvalue { double, i32 } %5, 1
  store i32 %9, ptr %8, align 8
  %10 = getelementptr inbounds nuw %struct.llama_perf_sampler_data, ptr %3, i32 0, i32 0
  %11 = load double, ptr %10, align 8, !tbaa !244
  %12 = getelementptr inbounds nuw %struct.llama_perf_sampler_data, ptr %3, i32 0, i32 1
  %13 = load i32, ptr %12, align 8, !tbaa !247
  %14 = getelementptr inbounds nuw %struct.llama_perf_sampler_data, ptr %3, i32 0, i32 0
  %15 = load double, ptr %14, align 8, !tbaa !244
  %16 = getelementptr inbounds nuw %struct.llama_perf_sampler_data, ptr %3, i32 0, i32 1
  %17 = load i32, ptr %16, align 8, !tbaa !247
  %18 = sitofp i32 %17 to double
  %19 = fdiv double %15, %18
  %20 = getelementptr inbounds nuw %struct.llama_perf_sampler_data, ptr %3, i32 0, i32 0
  %21 = load double, ptr %20, align 8, !tbaa !244
  %22 = fdiv double 1.000000e+03, %21
  %23 = getelementptr inbounds nuw %struct.llama_perf_sampler_data, ptr %3, i32 0, i32 1
  %24 = load i32, ptr %23, align 8, !tbaa !247
  %25 = sitofp i32 %24 to double
  %26 = fmul double %22, %25
  call void (i32, ptr, ...) @_Z18llama_log_internal14ggml_log_levelPKcz(i32 noundef 2, ptr noundef @.str.13, ptr noundef @__func__.llama_perf_sampler_print, double noundef %11, i32 noundef %13, double noundef %19, double noundef %26)
  call void @llvm.lifetime.end.p0(i64 16, ptr %3) #14
  ret void
}