; Function Attrs: mustprogress uwtable
define void @llama_perf_sampler_print(ptr noundef readonly %0) local_unnamed_addr #0 {
  %2 = icmp eq ptr %0, null
  br i1 %2, label %5, label %3

3:                                                ; preds = %1
  %4 = load ptr, ptr %0, align 8, !tbaa !3
  %.not.i = icmp eq ptr %4, @_ZL21llama_sampler_chain_i
  br i1 %.not.i, label %llama_perf_sampler.exit, label %5

5:                                                ; preds = %3, %1
  tail call void (ptr, i32, ptr, ...) @ggml_abort(ptr noundef nonnull @.str.1, i32 noundef 2498, ptr noundef nonnull @.str.12, ptr noundef nonnull @__func__.llama_perf_sampler) #31
  unreachable

llama_perf_sampler.exit:                          ; preds = %3
  %6 = getelementptr inbounds nuw i8, ptr %0, i64 8
  %7 = load ptr, ptr %6, align 8, !tbaa !9
  %8 = getelementptr inbounds nuw i8, ptr %7, i64 32
  %9 = load i64, ptr %8, align 8, !tbaa !201
  %10 = sitofp i64 %9 to double
  %11 = fmul double %10, 1.000000e-03
  %12 = getelementptr inbounds nuw i8, ptr %7, i64 40
  %13 = load i32, ptr %12, align 4, !tbaa !27
  %.sroa.speculated.i = tail call i32 @llvm.smax.i32(i32 %13, i32 0)
  %14 = uitofp nneg i32 %.sroa.speculated.i to double
  %15 = fdiv double %11, %14
  %16 = fdiv double 1.000000e+03, %11
  %17 = fmul double %16, %14
  tail call void (i32, ptr, ...) @_Z18llama_log_internal14ggml_log_levelPKcz(i32 noundef 2, ptr noundef nonnull @.str.13, ptr noundef nonnull @__func__.llama_perf_sampler_print, double noundef %11, i32 noundef %.sroa.speculated.i, double noundef %15, double noundef %17)
  ret void
}